; Function Attrs: nounwind uwtable
define ptr @l_Lean_Compiler_LCNF_Decl_reduceArity___lambda__1___boxed(ptr noundef readonly captures(none) %0) local_unnamed_addr #0 {
  %2 = load ptr, ptr %0, align 8, !tbaa !4
  %3 = getelementptr inbounds nuw i8, ptr %0, i64 8
  %4 = load ptr, ptr %3, align 8, !tbaa !4
  %5 = getelementptr inbounds nuw i8, ptr %0, i64 16
  %6 = load ptr, ptr %5, align 8, !tbaa !4
  %7 = getelementptr inbounds nuw i8, ptr %0, i64 24
  %8 = load ptr, ptr %7, align 8, !tbaa !4
  %9 = getelementptr inbounds nuw i8, ptr %0, i64 32
  %10 = load ptr, ptr %9, align 8, !tbaa !4
  %11 = getelementptr inbounds nuw i8, ptr %0, i64 40
  %12 = load ptr, ptr %11, align 8, !tbaa !4
  %13 = getelementptr inbounds nuw i8, ptr %0, i64 48
  %14 = load ptr, ptr %13, align 8, !tbaa !4
  %15 = getelementptr inbounds nuw i8, ptr %0, i64 56
  %16 = load ptr, ptr %15, align 8, !tbaa !4
  %17 = getelementptr inbounds nuw i8, ptr %0, i64 64
  %18 = load ptr, ptr %17, align 8, !tbaa !4
  %19 = getelementptr inbounds nuw i8, ptr %0, i64 72
  %20 = load ptr, ptr %19, align 8, !tbaa !4
  %21 = getelementptr inbounds nuw i8, ptr %0, i64 80
  %22 = load ptr, ptr %21, align 8, !tbaa !4
  %23 = getelementptr inbounds nuw i8, ptr %0, i64 88
  %24 = load ptr, ptr %23, align 8, !tbaa !4
  %25 = getelementptr inbounds nuw i8, ptr %0, i64 96
  %26 = load ptr, ptr %25, align 8, !tbaa !4
  %27 = getelementptr inbounds nuw i8, ptr %0, i64 104
  %28 = load ptr, ptr %27, align 8, !tbaa !4
  %29 = getelementptr inbounds nuw i8, ptr %0, i64 112
  %30 = load ptr, ptr %29, align 8, !tbaa !4
  %31 = getelementptr inbounds nuw i8, ptr %0, i64 120
  %32 = load ptr, ptr %31, align 8, !tbaa !4
  %33 = getelementptr inbounds nuw i8, ptr %0, i64 128
  %34 = load ptr, ptr %33, align 8, !tbaa !4
  %35 = ptrtoint ptr %14 to i64
  %36 = lshr i64 %35, 1
  %37 = trunc i64 %36 to i8
  %38 = and i64 %35, 1
  %.not = icmp eq i64 %38, 0
  br i1 %.not, label %39, label %lean_dec.exit44

39:                                               ; preds = %1
  %40 = load i32, ptr %14, align 4, !tbaa !8
  %41 = icmp sgt i32 %40, 1
  br i1 %41, label %42, label %44, !prof !11

42:                                               ; preds = %39
  %43 = add nsw i32 %40, -1
  store i32 %43, ptr %14, align 4, !tbaa !8
  br label %lean_dec.exit44

44:                                               ; preds = %39
  %.not.i = icmp eq i32 %40, 0
  br i1 %.not.i, label %lean_dec.exit44, label %45

45:                                               ; preds = %44
  tail call void @lean_dec_ref_cold(ptr noundef nonnull %14) #4
  br label %lean_dec.exit44

lean_dec.exit44:                                  ; preds = %45, %44, %42, %1
  %46 = ptrtoint ptr %16 to i64
  %47 = lshr i64 %46, 1
  %48 = trunc i64 %47 to i8
  %49 = and i64 %46, 1
  %.not53 = icmp eq i64 %49, 0
  br i1 %.not53, label %50, label %lean_dec.exit43

50:                                               ; preds = %lean_dec.exit44
  %51 = load i32, ptr %16, align 4, !tbaa !8
  %52 = icmp sgt i32 %51, 1
  br i1 %52, label %53, label %55, !prof !11

53:                                               ; preds = %50
  %54 = add nsw i32 %51, -1
  store i32 %54, ptr %16, align 4, !tbaa !8
  br label %lean_dec.exit43

55:                                               ; preds = %50
  %.not.i45 = icmp eq i32 %51, 0
  br i1 %.not.i45, label %lean_dec.exit43, label %56

56:                                               ; preds = %55
  tail call void @lean_dec_ref_cold(ptr noundef nonnull %16) #4
  br label %lean_dec.exit43

lean_dec.exit43:                                  ; preds = %56, %55, %53, %lean_dec.exit44
  %57 = tail call ptr @l_Lean_Compiler_LCNF_Decl_reduceArity___lambda__1(ptr noundef %2, ptr noundef %4, ptr noundef %6, ptr noundef %8, ptr noundef %10, ptr noundef %12, i8 noundef zeroext %37, i8 noundef zeroext %48, ptr noundef %18, ptr noundef %20, ptr noundef %22, ptr poison, ptr noundef %26, ptr noundef %28, ptr noundef %30, ptr noundef %32, ptr noundef %34)
  %58 = ptrtoint ptr %24 to i64
  %59 = and i64 %58, 1
  %.not54 = icmp eq i64 %59, 0
  br i1 %.not54, label %60, label %lean_dec.exit42

60:                                               ; preds = %lean_dec.exit43
  %61 = load i32, ptr %24, align 4, !tbaa !8
  %62 = icmp sgt i32 %61, 1
  br i1 %62, label %63, label %65, !prof !11

63:                                               ; preds = %60
  %64 = add nsw i32 %61, -1
  store i32 %64, ptr %24, align 4, !tbaa !8
  br label %lean_dec.exit42

65:                                               ; preds = %60
  %.not.i47 = icmp eq i32 %61, 0
  br i1 %.not.i47, label %lean_dec.exit42, label %66

66:                                               ; preds = %65
  tail call void @lean_dec_ref_cold(ptr noundef nonnull %24) #4
  br label %lean_dec.exit42

lean_dec.exit42:                                  ; preds = %66, %65, %63, %lean_dec.exit43
  %67 = ptrtoint ptr %8 to i64
  %68 = and i64 %67, 1
  %.not55 = icmp eq i64 %68, 0
  br i1 %.not55, label %69, label %lean_dec.exit41

69:                                               ; preds = %lean_dec.exit42
  %70 = load i32, ptr %8, align 4, !tbaa !8
  %71 = icmp sgt i32 %70, 1
  br i1 %71, label %72, label %74, !prof !11

72:                                               ; preds = %69
  %73 = add nsw i32 %70, -1
  store i32 %73, ptr %8, align 4, !tbaa !8
  br label %lean_dec.exit41

74:                                               ; preds = %69
  %.not.i49 = icmp eq i32 %70, 0
  br i1 %.not.i49, label %lean_dec.exit41, label %75

75:                                               ; preds = %74
  tail call void @lean_dec_ref_cold(ptr noundef nonnull %8) #4
  br label %lean_dec.exit41

lean_dec.exit41:                                  ; preds = %75, %74, %72, %lean_dec.exit42
  %76 = ptrtoint ptr %4 to i64
  %77 = and i64 %76, 1
  %.not56 = icmp eq i64 %77, 0
  br i1 %.not56, label %78, label %lean_dec.exit

78:                                               ; preds = %lean_dec.exit41
  %79 = load i32, ptr %4, align 4, !tbaa !8
  %80 = icmp sgt i32 %79, 1
  br i1 %80, label %81, label %83, !prof !11

81:                                               ; preds = %78
  %82 = add nsw i32 %79, -1
  store i32 %82, ptr %4, align 4, !tbaa !8
  br label %lean_dec.exit

83:                                               ; preds = %78
  %.not.i51 = icmp eq i32 %79, 0
  br i1 %.not.i51, label %lean_dec.exit, label %84

84:                                               ; preds = %83
  tail call void @lean_dec_ref_cold(ptr noundef nonnull %4) #4
  br label %lean_dec.exit

lean_dec.exit:                                    ; preds = %84, %83, %81, %lean_dec.exit41
  ret ptr %57
}